target datalayout = "e-m:e-p270:32:32-p271:32:32-p272:64:64-i64:64-i128:128-f80:128-n8:16:32:64-S128"
target triple = "x86_64-pc-linux-gnu"

%"struct.llvm::RegisterBankInfo::ValueMapping" = type <{ ptr, i32, [4 x i8] }>

; Function Attrs: mustprogress nounwind uwtable
define dso_local noundef ptr @_ZN4llvm22X86GenRegisterBankInfo15getValueMappingENS0_17PartialMappingIdxEj(i32 noundef %0, i32 noundef %1) #0 align 2 {
  %3 = alloca i32, align 4
  %4 = alloca i32, align 4
  store i32 %0, ptr %3, align 4
  store i32 %1, ptr %4, align 4
  %5 = load i32, ptr %4, align 4
  %6 = icmp ule i32 %5, 3
  br i1 %6, label %7, label %18

7:                                                ; preds = %2
  %8 = load i32, ptr %3, align 4
  %9 = icmp sge i32 %8, 0
  br i1 %9, label %10, label %18

10:                                               ; preds = %7
  %11 = load i32, ptr %3, align 4
  %12 = icmp sle i32 %11, 11
  br i1 %12, label %13, label %18

13:                                               ; preds = %10
  %14 = load i32, ptr %3, align 4
  %15 = mul i32 %14, 3
  %16 = zext i32 %15 to i64
  %17 = getelementptr inbounds [36 x %"struct.llvm::RegisterBankInfo::ValueMapping"], ptr @_ZN4llvm22X86GenRegisterBankInfo11ValMappingsE, i64 0, i64 %16
  ret ptr %17

18:                                               ; preds = %10, %7, %2
  unreachable
}