; Function Attrs: mustprogress nofree norecurse nosync nounwind willreturn memory(inaccessiblemem: write) uwtable
define dso_local noundef nonnull ptr @_ZN4llvm22X86GenRegisterBankInfo15getValueMappingENS0_17PartialMappingIdxEj(i32 noundef %0, i32 noundef %1) local_unnamed_addr #3 align 2 {
  %3 = icmp ult i32 %1, 4
  %4 = icmp ult i32 %0, 12
  tail call void @llvm.assume(i1 %3)
  tail call void @llvm.assume(i1 %4)
  %5 = mul nuw nsw i32 %0, 3
  %6 = zext nneg i32 %5 to i64
  %7 = getelementptr inbounds nuw [36 x %"struct.llvm::RegisterBankInfo::ValueMapping"], ptr @_ZN4llvm22X86GenRegisterBankInfo11ValMappingsE, i64 0, i64 %6
  ret ptr %7
}